; Function Attrs: mustprogress uwtable
define hidden noundef i32 @_ZN4test5closeEi(i32 noundef %0) local_unnamed_addr #6 {
  %2 = tail call i32 @close(i32 noundef %0)
  %3 = load i32, ptr @_ZN12_GLOBAL__N_111close_countE, align 4, !tbaa !10
  %.not = icmp eq i32 %3, 0
  br i1 %.not, label %8, label %4

4:                                                ; preds = %1
  %5 = add nsw i32 %3, 1
  store i32 %5, ptr @_ZN12_GLOBAL__N_111close_countE, align 4, !tbaa !10
  %.not4 = icmp eq i32 %3, 3
  br i1 %.not4, label %8, label %6

6:                                                ; preds = %4
  %7 = tail call ptr @__errno_location() #28
  store i32 4, ptr %7, align 4, !tbaa !10
  br label %8

8:                                                ; preds = %1, %4, %6
  %.0 = phi i32 [ -1, %6 ], [ %2, %4 ], [ %2, %1 ]
  ret i32 %.0
}